; Function Attrs: mustprogress nofree norecurse nosync nounwind willreturn memory(argmem: readwrite) uwtable
define void @_ZN11b2EdgeShape11SetTwoSidedERK6b2Vec2S2_(ptr nocapture noundef nonnull writeonly align 8 dereferenceable(49) %this, ptr nocapture noundef nonnull readonly align 4 dereferenceable(8) %v1, ptr nocapture noundef nonnull readonly align 4 dereferenceable(8) %v2) local_unnamed_addr #0 align 2 {
entry:
  %m_vertex1 = getelementptr inbounds i8, ptr %this, i64 16
  %0 = load i64, ptr %v1, align 4
  store i64 %0, ptr %m_vertex1, align 8
  %m_vertex2 = getelementptr inbounds i8, ptr %this, i64 24
  %1 = load i64, ptr %v2, align 4
  store i64 %1, ptr %m_vertex2, align 8
  %m_oneSided = getelementptr inbounds i8, ptr %this, i64 48
  store i8 0, ptr %m_oneSided, align 8
  ret void
}